; Function Attrs: nounwind uwtable
define ptr @l_Lake_LeanExeConfig_toLeanLibConfig___elambda__1___rarg___boxed(ptr noundef %0, ptr noundef %1) #0 {
  %3 = ptrtoint ptr %1 to i64
  %4 = and i64 %3, 1
  %.not = icmp eq i64 %4, 0
  br i1 %.not, label %5, label %lean_dec.exit

5:                                                ; preds = %2
  %6 = load i32, ptr %1, align 4, !tbaa !8
  %7 = icmp sgt i32 %6, 1
  br i1 %7, label %8, label %10, !prof !11

8:                                                ; preds = %5
  %9 = add nsw i32 %6, -1
  store i32 %9, ptr %1, align 4, !tbaa !8
  br label %lean_dec.exit

10:                                               ; preds = %5
  %.not.i = icmp eq i32 %6, 0
  br i1 %.not.i, label %lean_dec.exit, label %11

11:                                               ; preds = %10
  tail call void @lean_dec_ref_cold(ptr noundef nonnull %1) #4
  br label %lean_dec.exit

lean_dec.exit:                                    ; preds = %11, %10, %8, %2
  %12 = getelementptr inbounds nuw i8, ptr %0, i64 56
  %13 = load ptr, ptr %12, align 8, !tbaa !4
  %14 = ptrtoint ptr %13 to i64
  %15 = and i64 %14, 1
  %.not.i4 = icmp eq i64 %15, 0
  br i1 %.not.i4, label %16, label %lean_inc.exit.i

16:                                               ; preds = %lean_dec.exit
  %.val.i.i = load i32, ptr %13, align 4, !tbaa !8
  %17 = icmp sgt i32 %.val.i.i, 0
  br i1 %17, label %18, label %20, !prof !11

18:                                               ; preds = %16
  %19 = add nuw i32 %.val.i.i, 1
  store i32 %19, ptr %13, align 4, !tbaa !8
  br label %lean_inc.exit.i

20:                                               ; preds = %16
  %.not.i6.i = icmp eq i32 %.val.i.i, 0
  br i1 %.not.i6.i, label %lean_inc.exit.i, label %21

21:                                               ; preds = %20
  tail call void @lean_inc_ref_cold(ptr noundef nonnull %13) #4
  br label %lean_inc.exit.i

lean_inc.exit.i:                                  ; preds = %21, %20, %18, %lean_dec.exit
  %22 = ptrtoint ptr %0 to i64
  %23 = and i64 %22, 1
  %.not7.i = icmp eq i64 %23, 0
  br i1 %.not7.i, label %24, label %l_Lake_LeanExeConfig_toLeanLibConfig___elambda__1___rarg.exit

24:                                               ; preds = %lean_inc.exit.i
  %25 = load i32, ptr %0, align 4, !tbaa !8
  %26 = icmp sgt i32 %25, 1
  br i1 %26, label %27, label %29, !prof !11

27:                                               ; preds = %24
  %28 = add nsw i32 %25, -1
  store i32 %28, ptr %0, align 4, !tbaa !8
  br label %l_Lake_LeanExeConfig_toLeanLibConfig___elambda__1___rarg.exit

29:                                               ; preds = %24
  %.not.i.i = icmp eq i32 %25, 0
  br i1 %.not.i.i, label %l_Lake_LeanExeConfig_toLeanLibConfig___elambda__1___rarg.exit, label %30

30:                                               ; preds = %29
  tail call void @lean_dec_ref_cold(ptr noundef nonnull %0) #4
  br label %l_Lake_LeanExeConfig_toLeanLibConfig___elambda__1___rarg.exit

l_Lake_LeanExeConfig_toLeanLibConfig___elambda__1___rarg.exit: ; preds = %lean_inc.exit.i, %27, %29, %30
  %31 = and i64 %3, 510
  %32 = or disjoint i64 %31, 1
  %33 = inttoptr i64 %32 to ptr
  %34 = tail call ptr @lean_apply_1(ptr noundef %13, ptr noundef nonnull %33) #4
  ret ptr %34
}